target datalayout = "e-m:e-p270:32:32-p271:32:32-p272:64:64-i64:64-i128:128-f80:128-n8:16:32:64-S128"
target triple = "x86_64-pc-linux-gnu"

%struct.CDynBuf = type { ptr, i64, i64 }
%struct.ISzAlloc = type { ptr, ptr }

; Function Attrs: nounwind uwtable
define void @DynBuf_Construct(ptr noundef %0) #0 {
  %2 = alloca ptr, align 8
  store ptr %0, ptr %2, align 8
  %3 = load ptr, ptr %2, align 8
  %4 = getelementptr inbounds %struct.CDynBuf, ptr %3, i32 0, i32 0
  store ptr null, ptr %4, align 8
  %5 = load ptr, ptr %2, align 8
  %6 = getelementptr inbounds %struct.CDynBuf, ptr %5, i32 0, i32 1
  store i64 0, ptr %6, align 8
  %7 = load ptr, ptr %2, align 8
  %8 = getelementptr inbounds %struct.CDynBuf, ptr %7, i32 0, i32 2
  store i64 0, ptr %8, align 8
  ret void
}

; Function Attrs: nounwind uwtable
define void @DynBuf_SeekToBeg(ptr noundef %0) #0 {
  %2 = alloca ptr, align 8
  store ptr %0, ptr %2, align 8
  %3 = load ptr, ptr %2, align 8
  %4 = getelementptr inbounds %struct.CDynBuf, ptr %3, i32 0, i32 2
  store i64 0, ptr %4, align 8
  ret void
}

; Function Attrs: nounwind uwtable
define i32 @DynBuf_Write(ptr noundef %0, ptr noundef %1, i64 noundef %2, ptr noundef %3) #0 {
  %5 = alloca i32, align 4
  %6 = alloca ptr, align 8
  %7 = alloca ptr, align 8
  %8 = alloca i64, align 8
  %9 = alloca ptr, align 8
  %10 = alloca i64, align 8
  %11 = alloca ptr, align 8
  store ptr %0, ptr %6, align 8
  store ptr %1, ptr %7, align 8
  store i64 %2, ptr %8, align 8
  store ptr %3, ptr %9, align 8
  %12 = load i64, ptr %8, align 8
  %13 = load ptr, ptr %6, align 8
  %14 = getelementptr inbounds %struct.CDynBuf, ptr %13, i32 0, i32 1
  %15 = load i64, ptr %14, align 8
  %16 = load ptr, ptr %6, align 8
  %17 = getelementptr inbounds %struct.CDynBuf, ptr %16, i32 0, i32 2
  %18 = load i64, ptr %17, align 8
  %19 = sub i64 %15, %18
  %20 = icmp ugt i64 %12, %19
  br i1 %20, label %21, label %61

21:                                               ; preds = %4
  %22 = load ptr, ptr %6, align 8
  %23 = getelementptr inbounds %struct.CDynBuf, ptr %22, i32 0, i32 2
  %24 = load i64, ptr %23, align 8
  %25 = load i64, ptr %8, align 8
  %26 = add i64 %24, %25
  store i64 %26, ptr %10, align 8
  %27 = load i64, ptr %10, align 8
  %28 = udiv i64 %27, 4
  %29 = load i64, ptr %10, align 8
  %30 = add i64 %29, %28
  store i64 %30, ptr %10, align 8
  %31 = load ptr, ptr %9, align 8
  %32 = getelementptr inbounds %struct.ISzAlloc, ptr %31, i32 0, i32 0
  %33 = load ptr, ptr %32, align 8
  %34 = load ptr, ptr %9, align 8
  %35 = load i64, ptr %10, align 8
  %36 = call ptr %33(ptr noundef %34, i64 noundef %35)
  store ptr %36, ptr %11, align 8
  %37 = load ptr, ptr %11, align 8
  %38 = icmp eq ptr %37, null
  br i1 %38, label %39, label %40

39:                                               ; preds = %21
  store i32 0, ptr %5, align 4
  br label %76

40:                                               ; preds = %21
  %41 = load i64, ptr %10, align 8
  %42 = load ptr, ptr %6, align 8
  %43 = getelementptr inbounds %struct.CDynBuf, ptr %42, i32 0, i32 1
  store i64 %41, ptr %43, align 8
  %44 = load ptr, ptr %11, align 8
  %45 = load ptr, ptr %6, align 8
  %46 = getelementptr inbounds %struct.CDynBuf, ptr %45, i32 0, i32 0
  %47 = load ptr, ptr %46, align 8
  %48 = load ptr, ptr %6, align 8
  %49 = getelementptr inbounds %struct.CDynBuf, ptr %48, i32 0, i32 2
  %50 = load i64, ptr %49, align 8
  call void @llvm.memcpy.p0.p0.i64(ptr align 1 %44, ptr align 1 %47, i64 %50, i1 false)
  %51 = load ptr, ptr %9, align 8
  %52 = getelementptr inbounds %struct.ISzAlloc, ptr %51, i32 0, i32 1
  %53 = load ptr, ptr %52, align 8
  %54 = load ptr, ptr %9, align 8
  %55 = load ptr, ptr %6, align 8
  %56 = getelementptr inbounds %struct.CDynBuf, ptr %55, i32 0, i32 0
  %57 = load ptr, ptr %56, align 8
  call void %53(ptr noundef %54, ptr noundef %57)
  %58 = load ptr, ptr %11, align 8
  %59 = load ptr, ptr %6, align 8
  %60 = getelementptr inbounds %struct.CDynBuf, ptr %59, i32 0, i32 0
  store ptr %58, ptr %60, align 8
  br label %61

61:                                               ; preds = %40, %4
  %62 = load ptr, ptr %6, align 8
  %63 = getelementptr inbounds %struct.CDynBuf, ptr %62, i32 0, i32 0
  %64 = load ptr, ptr %63, align 8
  %65 = load ptr, ptr %6, align 8
  %66 = getelementptr inbounds %struct.CDynBuf, ptr %65, i32 0, i32 2
  %67 = load i64, ptr %66, align 8
  %68 = getelementptr inbounds i8, ptr %64, i64 %67
  %69 = load ptr, ptr %7, align 8
  %70 = load i64, ptr %8, align 8
  call void @llvm.memcpy.p0.p0.i64(ptr align 1 %68, ptr align 1 %69, i64 %70, i1 false)
  %71 = load i64, ptr %8, align 8
  %72 = load ptr, ptr %6, align 8
  %73 = getelementptr inbounds %struct.CDynBuf, ptr %72, i32 0, i32 2
  %74 = load i64, ptr %73, align 8
  %75 = add i64 %74, %71
  store i64 %75, ptr %73, align 8
  store i32 1, ptr %5, align 4
  br label %76

76:                                               ; preds = %61, %39
  %77 = load i32, ptr %5, align 4
  ret i32 %77
}

; Function Attrs: nocallback nofree nounwind willreturn memory(argmem: readwrite)
declare void @llvm.memcpy.p0.p0.i64(ptr noalias nocapture writeonly, ptr noalias nocapture readonly, i64, i1 immarg) #1

; Function Attrs: nounwind uwtable
define void @DynBuf_Free(ptr noundef %0, ptr noundef %1) #0 {
  %3 = alloca ptr, align 8
  %4 = alloca ptr, align 8
  store ptr %0, ptr %3, align 8
  store ptr %1, ptr %4, align 8
  %5 = load ptr, ptr %4, align 8
  %6 = getelementptr inbounds %struct.ISzAlloc, ptr %5, i32 0, i32 1
  %7 = load ptr, ptr %6, align 8
  %8 = load ptr, ptr %4, align 8
  %9 = load ptr, ptr %3, align 8
  %10 = getelementptr inbounds %struct.CDynBuf, ptr %9, i32 0, i32 0
  %11 = load ptr, ptr %10, align 8
  call void %7(ptr noundef %8, ptr noundef %11)
  %12 = load ptr, ptr %3, align 8
  %13 = getelementptr inbounds %struct.CDynBuf, ptr %12, i32 0, i32 0
  store ptr null, ptr %13, align 8
  %14 = load ptr, ptr %3, align 8
  %15 = getelementptr inbounds %struct.CDynBuf, ptr %14, i32 0, i32 1
  store i64 0, ptr %15, align 8
  %16 = load ptr, ptr %3, align 8
  %17 = getelementptr inbounds %struct.CDynBuf, ptr %16, i32 0, i32 2
  store i64 0, ptr %17, align 8
  ret void
}


!llvm.module.flags = !{!0, !1, !2, !3}

!0 = !{i32 1, !"wchar_size", i32 4}
!1 = !{i32 8, !"PIC Level", i32 2}
!2 = !{i32 7, !"uwtable", i32 2}
!3 = !{i32 7, !"frame-pointer", i32 2}
