; ModuleID = 'bench/clamav/original/7zBuf2.c.ll'
source_filename = "bench/clamav/original/7zBuf2.c.ll"
target datalayout = "e-m:e-p270:32:32-p271:32:32-p272:64:64-i64:64-i128:128-f80:128-n8:16:32:64-S128"
target triple = "x86_64-pc-linux-gnu"

; Function Attrs: mustprogress nofree norecurse nosync nounwind willreturn memory(argmem: write) uwtable
define void @DynBuf_Construct(ptr nocapture noundef writeonly %0) local_unnamed_addr #0 {
  tail call void @llvm.memset.p0.i64(ptr noundef nonnull align 8 dereferenceable(24) %0, i8 0, i64 24, i1 false)
  ret void
}

; Function Attrs: mustprogress nofree norecurse nosync nounwind willreturn memory(argmem: write) uwtable
define void @DynBuf_SeekToBeg(ptr nocapture noundef writeonly %0) local_unnamed_addr #0 {
  %2 = getelementptr inbounds i8, ptr %0, i64 16
  store i64 0, ptr %2, align 8
  ret void
}

; Function Attrs: nounwind uwtable
define noundef i32 @DynBuf_Write(ptr nocapture noundef %0, ptr nocapture noundef readonly %1, i64 noundef %2, ptr noundef %3) local_unnamed_addr #1 {
  %5 = getelementptr inbounds i8, ptr %0, i64 8
  %6 = load i64, ptr %5, align 8
  %7 = getelementptr inbounds i8, ptr %0, i64 16
  %8 = load i64, ptr %7, align 8
  %9 = sub i64 %6, %8
  %10 = icmp ult i64 %9, %2
  br i1 %10, label %11, label %._crit_edge

._crit_edge:                                      ; preds = %4
  %.pre = load ptr, ptr %0, align 8
  br label %24

11:                                               ; preds = %4
  %12 = add i64 %8, %2
  %13 = lshr i64 %12, 2
  %14 = add i64 %13, %12
  %15 = load ptr, ptr %3, align 8
  %16 = tail call ptr %15(ptr noundef nonnull %3, i64 noundef %14) #4
  %17 = icmp eq ptr %16, null
  br i1 %17, label %30, label %18

18:                                               ; preds = %11
  store i64 %14, ptr %5, align 8
  %19 = load ptr, ptr %0, align 8
  %20 = load i64, ptr %7, align 8
  tail call void @llvm.memcpy.p0.p0.i64(ptr nonnull align 1 %16, ptr align 1 %19, i64 %20, i1 false)
  %21 = getelementptr inbounds i8, ptr %3, i64 8
  %22 = load ptr, ptr %21, align 8
  %23 = load ptr, ptr %0, align 8
  tail call void %22(ptr noundef nonnull %3, ptr noundef %23) #4
  store ptr %16, ptr %0, align 8
  %.pre29 = load i64, ptr %7, align 8
  br label %24

24:                                               ; preds = %._crit_edge, %18
  %25 = phi i64 [ %8, %._crit_edge ], [ %.pre29, %18 ]
  %26 = phi ptr [ %.pre, %._crit_edge ], [ %16, %18 ]
  %27 = getelementptr inbounds i8, ptr %26, i64 %25
  tail call void @llvm.memcpy.p0.p0.i64(ptr align 1 %27, ptr align 1 %1, i64 %2, i1 false)
  %28 = load i64, ptr %7, align 8
  %29 = add i64 %28, %2
  store i64 %29, ptr %7, align 8
  br label %30

30:                                               ; preds = %11, %24
  %.0 = phi i32 [ 1, %24 ], [ 0, %11 ]
  ret i32 %.0
}

; Function Attrs: mustprogress nocallback nofree nounwind willreturn memory(argmem: readwrite)
declare void @llvm.memcpy.p0.p0.i64(ptr noalias nocapture writeonly, ptr noalias nocapture readonly, i64, i1 immarg) #2

; Function Attrs: nounwind uwtable
define void @DynBuf_Free(ptr nocapture noundef %0, ptr noundef %1) local_unnamed_addr #1 {
  %3 = getelementptr inbounds i8, ptr %1, i64 8
  %4 = load ptr, ptr %3, align 8
  %5 = load ptr, ptr %0, align 8
  tail call void %4(ptr noundef %1, ptr noundef %5) #4
  tail call void @llvm.memset.p0.i64(ptr noundef nonnull align 8 dereferenceable(24) %0, i8 0, i64 24, i1 false)
  ret void
}

; Function Attrs: nocallback nofree nounwind willreturn memory(argmem: write)
declare void @llvm.memset.p0.i64(ptr nocapture writeonly, i8, i64, i1 immarg) #3


!llvm.module.flags = !{!0, !1, !2, !3}

!0 = !{i32 1, !"wchar_size", i32 4}
!1 = !{i32 8, !"PIC Level", i32 2}
!2 = !{i32 7, !"uwtable", i32 2}
!3 = !{i32 7, !"frame-pointer", i32 2}
